; ModuleID = '40/201.c'
source_filename = "40/201.c"
target datalayout = "e-m:e-p270:32:32-p271:32:32-p272:64:64-i64:64-f80:128-n8:16:32:64-S128"
target triple = "x86_64-pc-linux-gnu"

@.str = private unnamed_addr constant [16 x i8] c"%lf%lf%lf%lf%lf\00", align 1
@.str.1 = private unnamed_addr constant [14 x i8] c"Invalid input\00", align 1
@.str.2 = private unnamed_addr constant [5 x i8] c"%.4f\00", align 1

; Function Attrs: noinline nounwind uwtable
define dso_local i32 @main(i32 %0, i8** %1) #0 {
  %3 = alloca i32, align 4
  %4 = alloca i32, align 4
  %5 = alloca i8**, align 8
  %6 = alloca double, align 8
  %7 = alloca double, align 8
  %8 = alloca double, align 8
  %9 = alloca double, align 8
  %10 = alloca double, align 8
  %11 = alloca double, align 8
  %12 = alloca double, align 8
  %13 = alloca double, align 8
  store i32 0, i32* %3, align 4
  store i32 %0, i32* %4, align 4
  store i8** %1, i8*** %5, align 8
  %14 = call i32 (i8*, ...) @__isoc99_scanf(i8* getelementptr inbounds ([16 x i8], [16 x i8]* @.str, i64 0, i64 0), double* %6, double* %7, double* %8, double* %9, double* %10)
  %15 = load double, double* %6, align 8
  %16 = load double, double* %7, align 8
  %17 = fadd double %15, %16
  %18 = load double, double* %8, align 8
  %19 = fadd double %17, %18
  %20 = load double, double* %9, align 8
  %21 = fadd double %19, %20
  %22 = fmul double 5.000000e-01, %21
  store double %22, double* %11, align 8
  %23 = load double, double* %11, align 8
  %24 = load double, double* %6, align 8
  %25 = fsub double %23, %24
  %26 = load double, double* %11, align 8
  %27 = load double, double* %7, align 8
  %28 = fsub double %26, %27
  %29 = fmul double %25, %28
  %30 = load double, double* %11, align 8
  %31 = load double, double* %8, align 8
  %32 = fsub double %30, %31
  %33 = fmul double %29, %32
  %34 = load double, double* %11, align 8
  %35 = load double, double* %9, align 8
  %36 = fsub double %34, %35
  %37 = fmul double %33, %36
  %38 = load double, double* %6, align 8
  %39 = load double, double* %7, align 8
  %40 = fmul double %38, %39
  %41 = load double, double* %8, align 8
  %42 = fmul double %40, %41
  %43 = load double, double* %9, align 8
  %44 = fmul double %42, %43
  %45 = load double, double* %10, align 8
  %46 = fmul double %45, 1.000000e+02
  %47 = fmul double %46, 1.000000e+00
  %48 = fdiv double %47, 2.000000e+00
  %49 = fdiv double %48, 1.800000e+02
  %50 = call double @cos(double %49) #3
  %51 = fmul double %44, %50
  %52 = load double, double* %10, align 8
  %53 = fmul double %52, 1.000000e+02
  %54 = fmul double %53, 1.000000e+00
  %55 = fdiv double %54, 2.000000e+00
  %56 = fdiv double %55, 1.800000e+02
  %57 = call double @cos(double %56) #3
  %58 = fmul double %51, %57
  %59 = fsub double %37, %58
  store double %59, double* %12, align 8
  %60 = load double, double* %12, align 8
  %61 = fcmp olt double %60, 0.000000e+00
  br i1 %61, label %62, label %64

62:                                               ; preds = %2
  %63 = call i32 (i8*, ...) @printf(i8* getelementptr inbounds ([14 x i8], [14 x i8]* @.str.1, i64 0, i64 0))
  br label %69

64:                                               ; preds = %2
  %65 = load double, double* %12, align 8
  %66 = call double @sqrt(double %65) #3
  store double %66, double* %13, align 8
  %67 = load double, double* %13, align 8
  %68 = call i32 (i8*, ...) @printf(i8* getelementptr inbounds ([5 x i8], [5 x i8]* @.str.2, i64 0, i64 0), double %67)
  br label %69

69:                                               ; preds = %64, %62
  ret i32 0
}

declare dso_local i32 @__isoc99_scanf(i8*, ...) #1

; Function Attrs: nounwind
declare dso_local double @cos(double) #2

declare dso_local i32 @printf(i8*, ...) #1

; Function Attrs: nounwind
declare dso_local double @sqrt(double) #2


!llvm.module.flags = !{!0}
!llvm.ident = !{!1}

!0 = !{i32 1, !"wchar_size", i32 4}
!1 = !{!"clang version 10.0.0-4ubuntu1 "}
